; Function Attrs: mustprogress uwtable
define void @_ZN6casadi2MX5eraseERKSt6vectorIxSaIxEEb(ptr noundef nonnull align 8 dereferenceable(8) %0, ptr noundef nonnull align 8 dereferenceable(24) %1, i1 noundef zeroext %2) local_unnamed_addr #3 align 2 personality ptr @__gxx_personality_v0 {
  %4 = alloca %"class.casadi::Sparsity", align 8
  %5 = alloca %"class.std::vector", align 8
  %6 = alloca %"class.casadi::MX", align 8
  %7 = tail call noundef ptr @_ZNK6casadi12SharedObjectptEv(ptr noundef nonnull align 8 dereferenceable(8) %0)
  %8 = getelementptr inbounds i8, ptr %7, i64 56
  call void @_ZN6casadi12SharedObjectC2ERKS0_(ptr noundef nonnull align 8 dereferenceable(8) %4, ptr noundef nonnull align 8 dereferenceable(8) %8)
  invoke void @_ZN6casadi8Sparsity5eraseERKSt6vectorIxSaIxEEb(ptr dead_on_unwind nonnull writable sret(%"class.std::vector") align 8 %5, ptr noundef nonnull align 8 dereferenceable(8) %4, ptr noundef nonnull align 8 dereferenceable(24) %1, i1 noundef zeroext %2)
          to label %9 unwind label %27

9:                                                ; preds = %3
  %10 = getelementptr inbounds i8, ptr %5, i64 8
  %11 = load ptr, ptr %10, align 8
  %12 = load ptr, ptr %5, align 8
  %13 = ptrtoint ptr %11 to i64
  %14 = ptrtoint ptr %12 to i64
  %15 = sub i64 %13, %14
  %16 = ashr exact i64 %15, 3
  %17 = invoke noundef ptr @_ZNK6casadi12SharedObjectptEv(ptr noundef nonnull align 8 dereferenceable(8) %0)
          to label %.noexc unwind label %29

.noexc:                                           ; preds = %9
  %18 = getelementptr inbounds i8, ptr %17, i64 56
  %19 = invoke noundef i64 @_ZNK6casadi8Sparsity3nnzEv(ptr noundef nonnull align 8 dereferenceable(8) %18)
          to label %_ZNK6casadi13GenericMatrixINS_2MXEE3nnzEv.exit unwind label %29

_ZNK6casadi13GenericMatrixINS_2MXEE3nnzEv.exit:   ; preds = %.noexc
  %.not = icmp eq i64 %16, %19
  br i1 %.not, label %33, label %20

20:                                               ; preds = %_ZNK6casadi13GenericMatrixINS_2MXEE3nnzEv.exit
  %21 = invoke noundef ptr @_ZNK6casadi12SharedObjectptEv(ptr noundef nonnull align 8 dereferenceable(8) %0)
          to label %_ZN6casadi2MXptEv.exit unwind label %29

_ZN6casadi2MXptEv.exit:                           ; preds = %20
  %22 = load ptr, ptr %21, align 8
  %23 = getelementptr inbounds i8, ptr %22, i64 616
  %24 = load ptr, ptr %23, align 8
  invoke void %24(ptr dead_on_unwind nonnull writable sret(%"class.casadi::MX") align 8 %6, ptr noundef nonnull align 8 dereferenceable(64) %21, ptr noundef nonnull align 8 dereferenceable(8) %4, ptr noundef nonnull align 8 dereferenceable(24) %5)
          to label %25 unwind label %29

25:                                               ; preds = %_ZN6casadi2MXptEv.exit
  %26 = invoke noundef nonnull align 8 dereferenceable(8) ptr @_ZN6casadi12SharedObjectaSERKS0_(ptr noundef nonnull align 8 dereferenceable(8) %0, ptr noundef nonnull align 8 dereferenceable(8) %6)
          to label %_ZN6casadi2MXaSERKS0_.exit unwind label %31

_ZN6casadi2MXaSERKS0_.exit:                       ; preds = %25
  call void @_ZN6casadi2MXD1Ev(ptr noundef nonnull align 8 dereferenceable(8) %6) #27
  br label %33

27:                                               ; preds = %3
  %28 = landingpad { ptr, i32 }
          cleanup
  br label %_ZNSt6vectorIxSaIxEED2Ev.exit12

29:                                               ; preds = %20, %.noexc, %9, %_ZN6casadi2MXptEv.exit
  %30 = landingpad { ptr, i32 }
          cleanup
  br label %36

31:                                               ; preds = %25
  %32 = landingpad { ptr, i32 }
          cleanup
  call void @_ZN6casadi2MXD1Ev(ptr noundef nonnull align 8 dereferenceable(8) %6) #27
  br label %36

33:                                               ; preds = %_ZN6casadi2MXaSERKS0_.exit, %_ZNK6casadi13GenericMatrixINS_2MXEE3nnzEv.exit
  %34 = load ptr, ptr %5, align 8
  %.not.i.i.i = icmp eq ptr %34, null
  br i1 %.not.i.i.i, label %_ZNSt6vectorIxSaIxEED2Ev.exit, label %35

35:                                               ; preds = %33
  call void @_ZdlPv(ptr noundef nonnull %34) #30
  br label %_ZNSt6vectorIxSaIxEED2Ev.exit

_ZNSt6vectorIxSaIxEED2Ev.exit:                    ; preds = %33, %35
  call void @_ZN6casadi12SharedObjectD2Ev(ptr noundef nonnull align 8 dereferenceable(8) %4) #27
  ret void

36:                                               ; preds = %31, %29
  %.pn = phi { ptr, i32 } [ %32, %31 ], [ %30, %29 ]
  %37 = load ptr, ptr %5, align 8
  %.not.i.i.i11 = icmp eq ptr %37, null
  br i1 %.not.i.i.i11, label %_ZNSt6vectorIxSaIxEED2Ev.exit12, label %38

38:                                               ; preds = %36
  call void @_ZdlPv(ptr noundef nonnull %37) #30
  br label %_ZNSt6vectorIxSaIxEED2Ev.exit12

_ZNSt6vectorIxSaIxEED2Ev.exit12:                  ; preds = %38, %36, %27
  %.pn.pn = phi { ptr, i32 } [ %28, %27 ], [ %.pn, %36 ], [ %.pn, %38 ]
  call void @_ZN6casadi12SharedObjectD2Ev(ptr noundef nonnull align 8 dereferenceable(8) %4) #27
  resume { ptr, i32 } %.pn.pn
}